; Function Attrs: mustprogress nofree norecurse nosync nounwind willreturn memory(none) uwtable
define dso_local range(i64 -1, 1321) i64 @uv_req_size(i32 noundef %0) local_unnamed_addr #6 {
  %switch.tableidx = add i32 %0, -1
  %2 = icmp ult i32 %switch.tableidx, 10
  br i1 %2, label %switch.lookup, label %4

switch.lookup:                                    ; preds = %1
  %3 = zext nneg i32 %switch.tableidx to i64
  %switch.gep = getelementptr inbounds nuw [10 x i64], ptr @switch.table.uv_req_size, i64 0, i64 %3
  %switch.load = load i64, ptr %switch.gep, align 8
  br label %4

4:                                                ; preds = %1, %switch.lookup
  %.0 = phi i64 [ %switch.load, %switch.lookup ], [ -1, %1 ]
  ret i64 %.0
}